; Function Attrs: mustprogress uwtable
define dso_local void @_ZN7FactMgr20makeup_new_var_factsERSt6vectorIPK4FactSaIS3_EERKS5_(ptr noundef nonnull readnone align 8 captures(none) dereferenceable(392) %0, ptr noundef nonnull align 8 dereferenceable(24) %1, ptr noundef nonnull readonly align 8 captures(none) dereferenceable(24) %2) local_unnamed_addr #4 align 2 {
  %4 = getelementptr inbounds nuw i8, ptr %2, i64 8
  %5 = load ptr, ptr %4, align 8, !tbaa !14
  %6 = load ptr, ptr %2, align 8, !tbaa !16
  %.not = icmp eq ptr %5, %6
  br i1 %.not, label %._crit_edge, label %.lr.ph

.lr.ph:                                           ; preds = %3, %27
  %7 = phi ptr [ %30, %27 ], [ %6, %3 ]
  %.011 = phi i64 [ %28, %27 ], [ 0, %3 ]
  %8 = getelementptr inbounds nuw ptr, ptr %7, i64 %.011
  %9 = load ptr, ptr %8, align 8, !tbaa !12
  %10 = load ptr, ptr %9, align 8, !tbaa !36
  %11 = getelementptr inbounds nuw i8, ptr %10, i64 120
  %12 = load ptr, ptr %11, align 8
  %13 = tail call noundef ptr %12(ptr noundef nonnull align 8 dereferenceable(12) %9)
  %14 = load ptr, ptr %13, align 8, !tbaa !36
  %15 = getelementptr inbounds nuw i8, ptr %14, i64 16
  %16 = load ptr, ptr %15, align 8
  %17 = tail call noundef zeroext i1 %16(ptr noundef nonnull align 8 dereferenceable(200) %13)
  br i1 %17, label %23, label %18

18:                                               ; preds = %.lr.ph
  %19 = load ptr, ptr %13, align 8, !tbaa !36
  %20 = getelementptr inbounds nuw i8, ptr %19, i64 24
  %21 = load ptr, ptr %20, align 8
  %22 = tail call noundef zeroext i1 %21(ptr noundef nonnull align 8 dereferenceable(200) %13)
  br i1 %22, label %23, label %27

23:                                               ; preds = %18, %.lr.ph
  %24 = tail call noundef ptr @_Z17find_related_factRKSt6vectorIPK4FactSaIS2_EES2_(ptr noundef nonnull align 8 dereferenceable(24) %1, ptr noundef nonnull %9)
  %25 = icmp eq ptr %24, null
  br i1 %25, label %26, label %27

26:                                               ; preds = %23
  tail call void @_ZN7FactMgr16add_new_var_factEPK8VariableRSt6vectorIPK4FactSaIS6_EE(ptr noundef nonnull %13, ptr noundef nonnull align 8 dereferenceable(24) %1)
  br label %27

27:                                               ; preds = %23, %26, %18
  %28 = add nuw i64 %.011, 1
  %29 = load ptr, ptr %4, align 8, !tbaa !14
  %30 = load ptr, ptr %2, align 8, !tbaa !16
  %31 = ptrtoint ptr %29 to i64
  %32 = ptrtoint ptr %30 to i64
  %33 = sub i64 %31, %32
  %34 = ashr exact i64 %33, 3
  %35 = icmp ult i64 %28, %34
  br i1 %35, label %.lr.ph, label %._crit_edge, !llvm.loop !195

._crit_edge:                                      ; preds = %27, %3
  ret void
}